target datalayout = "e-m:e-p270:32:32-p271:32:32-p272:64:64-i64:64-i128:128-f80:128-n8:16:32:64-S128"
target triple = "x86_64-pc-linux-gnu"

@_ZL15casadi_c_active = internal global i32 -1, align 4

; Function Attrs: mustprogress uwtable
define i32 @casadi_c_activate(i32 noundef %0) #5 {
  %2 = alloca i32, align 4
  %3 = alloca i32, align 4
  store i32 %0, ptr %3, align 4, !tbaa !16
  %4 = load i32, ptr %3, align 4, !tbaa !16
  %5 = call noundef i32 @_Z11sanitize_idi(i32 noundef %4)
  %6 = icmp ne i32 %5, 0
  br i1 %6, label %7, label %8

7:                                                ; preds = %1
  store i32 -1, ptr %2, align 4
  br label %10

8:                                                ; preds = %1
  %9 = load i32, ptr %3, align 4, !tbaa !16
  store i32 %9, ptr @_ZL15casadi_c_active, align 4, !tbaa !16
  store i32 0, ptr %2, align 4
  br label %10

10:                                               ; preds = %8, %7
  %11 = load i32, ptr %2, align 4
  ret i32 %11
}