; Function Attrs: mustprogress uwtable
define range(i32 -1, 1) i32 @casadi_c_activate(i32 noundef %0) local_unnamed_addr #5 {
  %2 = tail call noundef i32 @_Z11sanitize_idi(i32 noundef %0)
  %.not = icmp eq i32 %2, 0
  br i1 %.not, label %3, label %4

3:                                                ; preds = %1
  store i32 %0, ptr @_ZL15casadi_c_active, align 4, !tbaa !58
  br label %4

4:                                                ; preds = %1, %3
  %.0 = phi i32 [ 0, %3 ], [ -1, %1 ]
  ret i32 %.0
}